target datalayout = "e-m:e-p270:32:32-p271:32:32-p272:64:64-i64:64-i128:128-f80:128-n8:16:32:64-S128"
target triple = "x86_64-pc-linux-gnu"

%"class.pstd::span" = type { ptr, i64 }
%"class.pstd::span.0" = type { ptr, i64 }

@.str.1 = private unnamed_addr constant [45 x i8] c"Check failed: %s == %s with %s = %s, %s = %s\00", align 1
@.str.10 = private unnamed_addr constant [116 x i8] c"generated/home/dtcxzyw/WorkSpace/Projects/compilers/llvm-opt-benchmark/bench/pbrt-v4/pbrt-v4/src/pbrt/util/math.cpp\00", align 1
@.str.14 = private unnamed_addr constant [13 x i8] c"nodes.size()\00", align 1
@.str.15 = private unnamed_addr constant [9 x i8] c"f.size()\00", align 1

; Function Attrs: mustprogress nounwind uwtable
define linkonce_odr dso_local noundef nonnull align 4 dereferenceable(4) ptr @_ZN4pstd4spanIKfEixEm(ptr noundef nonnull align 8 dereferenceable(16) %0, i64 noundef %1) #6 comdat align 2 {
  %3 = alloca ptr, align 8
  %4 = alloca i64, align 8
  store ptr %0, ptr %3, align 8, !tbaa !25
  store i64 %1, ptr %4, align 8, !tbaa !22
  %5 = load ptr, ptr %3, align 8
  br label %6

6:                                                ; preds = %2
  br label %7

7:                                                ; preds = %6
  %8 = getelementptr inbounds nuw %"class.pstd::span", ptr %5, i32 0, i32 0
  %9 = load ptr, ptr %8, align 8, !tbaa !37
  %10 = load i64, ptr %4, align 8, !tbaa !22
  %11 = getelementptr inbounds nuw float, ptr %9, i64 %10
  ret ptr %11
}

; Function Attrs: mustprogress nounwind uwtable
define linkonce_odr dso_local noundef nonnull align 4 dereferenceable(4) ptr @_ZN4pstd4spanIfEixEm(ptr noundef nonnull align 8 dereferenceable(16) %0, i64 noundef %1) #6 comdat align 2 {
  %3 = alloca ptr, align 8
  %4 = alloca i64, align 8
  store ptr %0, ptr %3, align 8, !tbaa !60
  store i64 %1, ptr %4, align 8, !tbaa !22
  %5 = load ptr, ptr %3, align 8
  br label %6

6:                                                ; preds = %2
  br label %7

7:                                                ; preds = %6
  %8 = getelementptr inbounds nuw %"class.pstd::span.0", ptr %5, i32 0, i32 0
  %9 = load ptr, ptr %8, align 8, !tbaa !81
  %10 = load i64, ptr %4, align 8, !tbaa !22
  %11 = getelementptr inbounds nuw float, ptr %9, i64 %10
  ret ptr %11
}

; Function Attrs: mustprogress nounwind uwtable
define linkonce_odr dso_local noundef i64 @_ZNK4pstd4spanIKfE4sizeEv(ptr noundef nonnull align 8 dereferenceable(16) %0) #6 comdat align 2 {
  %2 = alloca ptr, align 8
  store ptr %0, ptr %2, align 8, !tbaa !25
  %3 = load ptr, ptr %2, align 8
  %4 = getelementptr inbounds nuw %"class.pstd::span", ptr %3, i32 0, i32 1
  %5 = load i64, ptr %4, align 8, !tbaa !27
  ret i64 %5
}

; Function Attrs: mustprogress uwtable
define dso_local noundef float @_ZN4pbrt19IntegrateCatmullRomEN4pstd4spanIKfEES3_NS1_IfEE(ptr %0, i64 %1, ptr %2, i64 %3, ptr %4, i64 %5) #4 {
  %7 = alloca %"class.pstd::span", align 8
  %8 = alloca %"class.pstd::span", align 8
  %9 = alloca %"class.pstd::span.0", align 8
  %10 = alloca i64, align 8
  %11 = alloca i64, align 8
  %12 = alloca float, align 4
  %13 = alloca i32, align 4
  %14 = alloca float, align 4
  %15 = alloca float, align 4
  %16 = alloca float, align 4
  %17 = alloca float, align 4
  %18 = alloca float, align 4
  %19 = alloca float, align 4
  %20 = alloca float, align 4
  %21 = getelementptr inbounds nuw { ptr, i64 }, ptr %7, i32 0, i32 0
  store ptr %0, ptr %21, align 8
  %22 = getelementptr inbounds nuw { ptr, i64 }, ptr %7, i32 0, i32 1
  store i64 %1, ptr %22, align 8
  %23 = getelementptr inbounds nuw { ptr, i64 }, ptr %8, i32 0, i32 0
  store ptr %2, ptr %23, align 8
  %24 = getelementptr inbounds nuw { ptr, i64 }, ptr %8, i32 0, i32 1
  store i64 %3, ptr %24, align 8
  %25 = getelementptr inbounds nuw { ptr, i64 }, ptr %9, i32 0, i32 0
  store ptr %4, ptr %25, align 8
  %26 = getelementptr inbounds nuw { ptr, i64 }, ptr %9, i32 0, i32 1
  store i64 %5, ptr %26, align 8
  br label %27

27:                                               ; preds = %6
  call void @llvm.lifetime.start.p0(i64 8, ptr %10) #3
  %28 = call noundef i64 @_ZNK4pstd4spanIKfE4sizeEv(ptr noundef nonnull align 8 dereferenceable(16) %7)
  store i64 %28, ptr %10, align 8, !tbaa !22
  call void @llvm.lifetime.start.p0(i64 8, ptr %11) #3
  %29 = call noundef i64 @_ZNK4pstd4spanIKfE4sizeEv(ptr noundef nonnull align 8 dereferenceable(16) %8)
  store i64 %29, ptr %11, align 8, !tbaa !22
  %30 = load i64, ptr %10, align 8, !tbaa !22
  %31 = load i64, ptr %11, align 8, !tbaa !22
  %32 = icmp eq i64 %30, %31
  br i1 %32, label %34, label %33

33:                                               ; preds = %27
  call void @_ZN4pbrt8LogFatalIJRA13_KcRA9_S1_S3_RmS5_S6_EEEvNS_8LogLevelEPS1_iS8_DpOT_(i32 noundef 2, ptr noundef @.str.10, i32 noundef 269, ptr noundef @.str.1, ptr noundef nonnull align 1 dereferenceable(13) @.str.14, ptr noundef nonnull align 1 dereferenceable(9) @.str.15, ptr noundef nonnull align 1 dereferenceable(13) @.str.14, ptr noundef nonnull align 8 dereferenceable(8) %10, ptr noundef nonnull align 1 dereferenceable(9) @.str.15, ptr noundef nonnull align 8 dereferenceable(8) %11) #21
  unreachable

34:                                               ; preds = %27
  call void @llvm.lifetime.end.p0(i64 8, ptr %11) #3
  call void @llvm.lifetime.end.p0(i64 8, ptr %10) #3
  br label %35

35:                                               ; preds = %34
  call void @llvm.lifetime.start.p0(i64 4, ptr %12) #3
  store float 0.000000e+00, ptr %12, align 4, !tbaa !8
  %36 = call noundef nonnull align 4 dereferenceable(4) ptr @_ZN4pstd4spanIfEixEm(ptr noundef nonnull align 8 dereferenceable(16) %9, i64 noundef 0)
  store float 0.000000e+00, ptr %36, align 4, !tbaa !8
  call void @llvm.lifetime.start.p0(i64 4, ptr %13) #3
  store i32 0, ptr %13, align 4, !tbaa !4
  br label %37

37:                                               ; preds = %139, %35
  %38 = load i32, ptr %13, align 4, !tbaa !4
  %39 = sext i32 %38 to i64
  %40 = call noundef i64 @_ZNK4pstd4spanIKfE4sizeEv(ptr noundef nonnull align 8 dereferenceable(16) %7)
  %41 = sub i64 %40, 1
  %42 = icmp ult i64 %39, %41
  br i1 %42, label %44, label %43

43:                                               ; preds = %37
  call void @llvm.lifetime.end.p0(i64 4, ptr %13) #3
  br label %142

44:                                               ; preds = %37
  call void @llvm.lifetime.start.p0(i64 4, ptr %14) #3
  %45 = load i32, ptr %13, align 4, !tbaa !4
  %46 = sext i32 %45 to i64
  %47 = call noundef nonnull align 4 dereferenceable(4) ptr @_ZN4pstd4spanIKfEixEm(ptr noundef nonnull align 8 dereferenceable(16) %7, i64 noundef %46)
  %48 = load float, ptr %47, align 4, !tbaa !8
  store float %48, ptr %14, align 4, !tbaa !8
  call void @llvm.lifetime.start.p0(i64 4, ptr %15) #3
  %49 = load i32, ptr %13, align 4, !tbaa !4
  %50 = add nsw i32 %49, 1
  %51 = sext i32 %50 to i64
  %52 = call noundef nonnull align 4 dereferenceable(4) ptr @_ZN4pstd4spanIKfEixEm(ptr noundef nonnull align 8 dereferenceable(16) %7, i64 noundef %51)
  %53 = load float, ptr %52, align 4, !tbaa !8
  store float %53, ptr %15, align 4, !tbaa !8
  call void @llvm.lifetime.start.p0(i64 4, ptr %16) #3
  %54 = load i32, ptr %13, align 4, !tbaa !4
  %55 = sext i32 %54 to i64
  %56 = call noundef nonnull align 4 dereferenceable(4) ptr @_ZN4pstd4spanIKfEixEm(ptr noundef nonnull align 8 dereferenceable(16) %8, i64 noundef %55)
  %57 = load float, ptr %56, align 4, !tbaa !8
  store float %57, ptr %16, align 4, !tbaa !8
  call void @llvm.lifetime.start.p0(i64 4, ptr %17) #3
  %58 = load i32, ptr %13, align 4, !tbaa !4
  %59 = add nsw i32 %58, 1
  %60 = sext i32 %59 to i64
  %61 = call noundef nonnull align 4 dereferenceable(4) ptr @_ZN4pstd4spanIKfEixEm(ptr noundef nonnull align 8 dereferenceable(16) %8, i64 noundef %60)
  %62 = load float, ptr %61, align 4, !tbaa !8
  store float %62, ptr %17, align 4, !tbaa !8
  call void @llvm.lifetime.start.p0(i64 4, ptr %18) #3
  %63 = load float, ptr %15, align 4, !tbaa !8
  %64 = load float, ptr %14, align 4, !tbaa !8
  %65 = fsub float %63, %64
  store float %65, ptr %18, align 4, !tbaa !8
  call void @llvm.lifetime.start.p0(i64 4, ptr %19) #3
  %66 = load i32, ptr %13, align 4, !tbaa !4
  %67 = icmp sgt i32 %66, 0
  br i1 %67, label %68, label %86

68:                                               ; preds = %44
  %69 = load float, ptr %18, align 4, !tbaa !8
  %70 = load float, ptr %17, align 4, !tbaa !8
  %71 = load i32, ptr %13, align 4, !tbaa !4
  %72 = sub nsw i32 %71, 1
  %73 = sext i32 %72 to i64
  %74 = call noundef nonnull align 4 dereferenceable(4) ptr @_ZN4pstd4spanIKfEixEm(ptr noundef nonnull align 8 dereferenceable(16) %8, i64 noundef %73)
  %75 = load float, ptr %74, align 4, !tbaa !8
  %76 = fsub float %70, %75
  %77 = fmul float %69, %76
  %78 = load float, ptr %15, align 4, !tbaa !8
  %79 = load i32, ptr %13, align 4, !tbaa !4
  %80 = sub nsw i32 %79, 1
  %81 = sext i32 %80 to i64
  %82 = call noundef nonnull align 4 dereferenceable(4) ptr @_ZN4pstd4spanIKfEixEm(ptr noundef nonnull align 8 dereferenceable(16) %7, i64 noundef %81)
  %83 = load float, ptr %82, align 4, !tbaa !8
  %84 = fsub float %78, %83
  %85 = fdiv float %77, %84
  br label %90

86:                                               ; preds = %44
  %87 = load float, ptr %17, align 4, !tbaa !8
  %88 = load float, ptr %16, align 4, !tbaa !8
  %89 = fsub float %87, %88
  br label %90

90:                                               ; preds = %86, %68
  %91 = phi float [ %85, %68 ], [ %89, %86 ]
  store float %91, ptr %19, align 4, !tbaa !8
  call void @llvm.lifetime.start.p0(i64 4, ptr %20) #3
  %92 = load i32, ptr %13, align 4, !tbaa !4
  %93 = add nsw i32 %92, 2
  %94 = sext i32 %93 to i64
  %95 = call noundef i64 @_ZNK4pstd4spanIKfE4sizeEv(ptr noundef nonnull align 8 dereferenceable(16) %7)
  %96 = icmp ult i64 %94, %95
  br i1 %96, label %97, label %115

97:                                               ; preds = %90
  %98 = load float, ptr %18, align 4, !tbaa !8
  %99 = load i32, ptr %13, align 4, !tbaa !4
  %100 = add nsw i32 %99, 2
  %101 = sext i32 %100 to i64
  %102 = call noundef nonnull align 4 dereferenceable(4) ptr @_ZN4pstd4spanIKfEixEm(ptr noundef nonnull align 8 dereferenceable(16) %8, i64 noundef %101)
  %103 = load float, ptr %102, align 4, !tbaa !8
  %104 = load float, ptr %16, align 4, !tbaa !8
  %105 = fsub float %103, %104
  %106 = fmul float %98, %105
  %107 = load i32, ptr %13, align 4, !tbaa !4
  %108 = add nsw i32 %107, 2
  %109 = sext i32 %108 to i64
  %110 = call noundef nonnull align 4 dereferenceable(4) ptr @_ZN4pstd4spanIKfEixEm(ptr noundef nonnull align 8 dereferenceable(16) %7, i64 noundef %109)
  %111 = load float, ptr %110, align 4, !tbaa !8
  %112 = load float, ptr %14, align 4, !tbaa !8
  %113 = fsub float %111, %112
  %114 = fdiv float %106, %113
  br label %119

115:                                              ; preds = %90
  %116 = load float, ptr %17, align 4, !tbaa !8
  %117 = load float, ptr %16, align 4, !tbaa !8
  %118 = fsub float %116, %117
  br label %119

119:                                              ; preds = %115, %97
  %120 = phi float [ %114, %97 ], [ %118, %115 ]
  store float %120, ptr %20, align 4, !tbaa !8
  %121 = load float, ptr %18, align 4, !tbaa !8
  %122 = load float, ptr %16, align 4, !tbaa !8
  %123 = load float, ptr %17, align 4, !tbaa !8
  %124 = fadd float %122, %123
  %125 = fdiv float %124, 2.000000e+00
  %126 = load float, ptr %19, align 4, !tbaa !8
  %127 = load float, ptr %20, align 4, !tbaa !8
  %128 = fsub float %126, %127
  %129 = fdiv float %128, 1.200000e+01
  %130 = fadd float %125, %129
  %131 = fmul float %121, %130
  %132 = load float, ptr %12, align 4, !tbaa !8
  %133 = fadd float %132, %131
  store float %133, ptr %12, align 4, !tbaa !8
  %134 = load float, ptr %12, align 4, !tbaa !8
  %135 = load i32, ptr %13, align 4, !tbaa !4
  %136 = add nsw i32 %135, 1
  %137 = sext i32 %136 to i64
  %138 = call noundef nonnull align 4 dereferenceable(4) ptr @_ZN4pstd4spanIfEixEm(ptr noundef nonnull align 8 dereferenceable(16) %9, i64 noundef %137)
  store float %134, ptr %138, align 4, !tbaa !8
  call void @llvm.lifetime.end.p0(i64 4, ptr %20) #3
  call void @llvm.lifetime.end.p0(i64 4, ptr %19) #3
  call void @llvm.lifetime.end.p0(i64 4, ptr %18) #3
  call void @llvm.lifetime.end.p0(i64 4, ptr %17) #3
  call void @llvm.lifetime.end.p0(i64 4, ptr %16) #3
  call void @llvm.lifetime.end.p0(i64 4, ptr %15) #3
  call void @llvm.lifetime.end.p0(i64 4, ptr %14) #3
  br label %139

139:                                              ; preds = %119
  %140 = load i32, ptr %13, align 4, !tbaa !4
  %141 = add nsw i32 %140, 1
  store i32 %141, ptr %13, align 4, !tbaa !4
  br label %37, !llvm.loop !167

142:                                              ; preds = %43
  %143 = load float, ptr %12, align 4, !tbaa !8
  call void @llvm.lifetime.end.p0(i64 4, ptr %12) #3
  ret float %143
}