; Function Attrs: mustprogress uwtable
define dso_local noundef float @_ZN4pbrt19IntegrateCatmullRomEN4pstd4spanIKfEES3_NS1_IfEE(ptr readonly captures(none) %0, i64 %1, ptr readonly captures(none) %2, i64 %3, ptr writeonly captures(none) %4, i64 %5) local_unnamed_addr #3 {
  %7 = alloca i64, align 8
  %8 = alloca i64, align 8
  call void @llvm.lifetime.start.p0(i64 8, ptr nonnull %7) #27
  store i64 %1, ptr %7, align 8, !tbaa !10
  call void @llvm.lifetime.start.p0(i64 8, ptr nonnull %8) #27
  store i64 %3, ptr %8, align 8, !tbaa !10
  %9 = icmp eq i64 %1, %3
  br i1 %9, label %11, label %10

10:                                               ; preds = %6
  call void @_ZN4pbrt8LogFatalIJRA13_KcRA9_S1_S3_RmS5_S6_EEEvNS_8LogLevelEPS1_iS8_DpOT_(i32 noundef 2, ptr noundef nonnull @.str.10, i32 noundef 269, ptr noundef nonnull @.str.1, ptr noundef nonnull align 1 dereferenceable(13) @.str.14, ptr noundef nonnull align 1 dereferenceable(9) @.str.15, ptr noundef nonnull align 1 dereferenceable(13) @.str.14, ptr noundef nonnull align 8 dereferenceable(8) %7, ptr noundef nonnull align 1 dereferenceable(9) @.str.15, ptr noundef nonnull align 8 dereferenceable(8) %8) #28
  unreachable

11:                                               ; preds = %6
  call void @llvm.lifetime.end.p0(i64 8, ptr nonnull %8) #27
  call void @llvm.lifetime.end.p0(i64 8, ptr nonnull %7) #27
  store float 0.000000e+00, ptr %4, align 4, !tbaa !4
  %12 = add i64 %1, -1
  %.not49 = icmp eq i64 %12, 0
  br i1 %.not49, label %._crit_edge, label %.lr.ph

._crit_edge:                                      ; preds = %49, %11
  %.0.lcssa = phi float [ 0.000000e+00, %11 ], [ %57, %49 ]
  ret float %.0.lcssa

.lr.ph:                                           ; preds = %11, %49
  %indvars.iv = phi i64 [ %indvars.iv.next, %49 ], [ 0, %11 ]
  %.048 = phi float [ %57, %49 ], [ 0.000000e+00, %11 ]
  %13 = getelementptr inbounds nuw float, ptr %0, i64 %indvars.iv
  %14 = load float, ptr %13, align 4, !tbaa !4
  %indvars.iv.next = add nuw nsw i64 %indvars.iv, 1
  %15 = getelementptr inbounds nuw float, ptr %0, i64 %indvars.iv.next
  %16 = load float, ptr %15, align 4, !tbaa !4
  %17 = getelementptr inbounds nuw float, ptr %2, i64 %indvars.iv
  %18 = load float, ptr %17, align 4, !tbaa !4
  %19 = getelementptr inbounds nuw float, ptr %2, i64 %indvars.iv.next
  %20 = load float, ptr %19, align 4, !tbaa !4
  %21 = fsub float %16, %14
  %.not = icmp eq i64 %indvars.iv, 0
  br i1 %.not, label %32, label %22

22:                                               ; preds = %.lr.ph
  %23 = add nsw i64 %indvars.iv, -1
  %24 = getelementptr inbounds nuw float, ptr %2, i64 %23
  %25 = load float, ptr %24, align 4, !tbaa !4
  %26 = fsub float %20, %25
  %27 = fmul float %21, %26
  %28 = getelementptr inbounds nuw float, ptr %0, i64 %23
  %29 = load float, ptr %28, align 4, !tbaa !4
  %30 = fsub float %16, %29
  %31 = fdiv float %27, %30
  br label %34

32:                                               ; preds = %.lr.ph
  %33 = fsub float %20, %18
  br label %34

34:                                               ; preds = %32, %22
  %35 = phi float [ %31, %22 ], [ %33, %32 ]
  %36 = add nuw nsw i64 %indvars.iv, 2
  %37 = icmp ugt i64 %1, %36
  br i1 %37, label %38, label %47

38:                                               ; preds = %34
  %39 = getelementptr inbounds nuw float, ptr %2, i64 %36
  %40 = load float, ptr %39, align 4, !tbaa !4
  %41 = fsub float %40, %18
  %42 = fmul float %21, %41
  %43 = getelementptr inbounds nuw float, ptr %0, i64 %36
  %44 = load float, ptr %43, align 4, !tbaa !4
  %45 = fsub float %44, %14
  %46 = fdiv float %42, %45
  br label %49

47:                                               ; preds = %34
  %48 = fsub float %20, %18
  br label %49

49:                                               ; preds = %47, %38
  %50 = phi float [ %46, %38 ], [ %48, %47 ]
  %51 = fadd float %18, %20
  %52 = fmul float %51, 5.000000e-01
  %53 = fsub float %35, %50
  %54 = fdiv float %53, 1.200000e+01
  %55 = fadd float %52, %54
  %56 = fmul float %21, %55
  %57 = fadd float %.048, %56
  %58 = getelementptr inbounds nuw float, ptr %4, i64 %indvars.iv.next
  store float %57, ptr %58, align 4, !tbaa !4
  %exitcond.not = icmp eq i64 %indvars.iv.next, %12
  br i1 %exitcond.not, label %._crit_edge, label %.lr.ph, !llvm.loop !112
}